; Function Attrs: mustprogress nofree norecurse nosync nounwind willreturn memory(write, argmem: readwrite, inaccessiblemem: none) uwtable
define hidden void @uv__io_feed(ptr noundef %0, ptr noundef %1) local_unnamed_addr #13 {
  %3 = getelementptr inbounds nuw i8, ptr %1, i64 8
  %4 = load ptr, ptr %3, align 8
  %.not = icmp eq ptr %3, %4
  br i1 %.not, label %5, label %10

5:                                                ; preds = %2
  %6 = getelementptr inbounds nuw i8, ptr %0, i64 72
  store ptr %6, ptr %3, align 8
  %7 = getelementptr inbounds nuw i8, ptr %0, i64 80
  %8 = load ptr, ptr %7, align 8
  %9 = getelementptr inbounds nuw i8, ptr %1, i64 16
  store ptr %8, ptr %9, align 8
  store ptr %3, ptr %8, align 8
  store ptr %3, ptr %7, align 8
  br label %10

10:                                               ; preds = %5, %2
  ret void
}